target datalayout = "e-m:e-p270:32:32-p271:32:32-p272:64:64-i64:64-i128:128-f80:128-n8:16:32:64-S128"
target triple = "x86_64-pc-linux-gnu"

%struct.tr2_cfg_data = type { ptr, i32 }

@the_repository = external global ptr, align 8

; Function Attrs: nounwind uwtable
define dso_local void @tr2_cfg_list_config_fl(ptr noundef %0, i32 noundef %1) #0 {
  %3 = alloca ptr, align 8
  %4 = alloca i32, align 4
  %5 = alloca %struct.tr2_cfg_data, align 8
  store ptr %0, ptr %3, align 8, !tbaa !11
  store i32 %1, ptr %4, align 4, !tbaa !9
  call void @llvm.lifetime.start.p0(i64 16, ptr %5) #9
  %6 = getelementptr inbounds nuw %struct.tr2_cfg_data, ptr %5, i32 0, i32 0
  %7 = load ptr, ptr %3, align 8, !tbaa !11
  store ptr %7, ptr %6, align 8, !tbaa !13
  %8 = getelementptr inbounds nuw %struct.tr2_cfg_data, ptr %5, i32 0, i32 1
  %9 = load i32, ptr %4, align 4, !tbaa !9
  store i32 %9, ptr %8, align 8, !tbaa !15
  %10 = getelementptr i8, ptr %5, i64 12
  call void @llvm.memset.p0.i64(ptr align 4 %10, i8 0, i64 4, i1 false)
  %11 = call i32 @tr2_cfg_load_patterns()
  %12 = icmp sgt i32 %11, 0
  br i1 %12, label %13, label %15

13:                                               ; preds = %2
  %14 = load ptr, ptr @the_repository, align 8, !tbaa !16
  call void @read_early_config(ptr noundef %14, ptr noundef @tr2_cfg_cb, ptr noundef %5)
  br label %15

15:                                               ; preds = %13, %2
  call void @llvm.lifetime.end.p0(i64 16, ptr %5) #9
  ret void
}