; Function Attrs: nounwind uwtable
define dso_local void @tr2_cfg_list_config_fl(ptr noundef %0, i32 noundef %1) local_unnamed_addr #0 {
  %3 = alloca %struct.tr2_cfg_data, align 8
  call void @llvm.lifetime.start.p0(i64 16, ptr nonnull %3) #8
  store ptr %0, ptr %3, align 8, !tbaa !11
  %4 = getelementptr inbounds nuw i8, ptr %3, i64 8
  store i32 %1, ptr %4, align 8, !tbaa !14
  %5 = getelementptr inbounds nuw i8, ptr %3, i64 12
  store i32 0, ptr %5, align 4
  %6 = tail call fastcc i32 @tr2_cfg_load_patterns()
  %7 = icmp sgt i32 %6, 0
  br i1 %7, label %8, label %10

8:                                                ; preds = %2
  %9 = load ptr, ptr @the_repository, align 8, !tbaa !15
  call void @read_early_config(ptr noundef %9, ptr noundef nonnull @tr2_cfg_cb, ptr noundef nonnull %3) #8
  br label %10

10:                                               ; preds = %8, %2
  call void @llvm.lifetime.end.p0(i64 16, ptr nonnull %3) #8
  ret void
}